target datalayout = "e-m:e-p270:32:32-p271:32:32-p272:64:64-i64:64-i128:128-f80:128-n8:16:32:64-S128"
target triple = "x86_64-pc-linux-gnu"

%"class.llvm::MemoryBufferRef" = type { %"class.llvm::StringRef", %"class.llvm::StringRef" }
%"class.llvm::StringRef" = type { ptr, i64 }
%"class.llvm::object::Binary" = type { ptr, i32, %"class.llvm::MemoryBufferRef" }

; Function Attrs: mustprogress nounwind uwtable
define internal noundef i32 @_ZZ17LLVMBinaryGetTypeEN16BinaryTypeMapper29mapBinaryTypeToLLVMBinaryTypeEj(i32 noundef %0) #0 align 2 {
  %2 = alloca i32, align 4
  %3 = alloca i32, align 4
  store i32 %0, ptr %3, align 4
  %4 = load i32, ptr %3, align 4
  switch i32 %4, label %22 [
    i32 0, label %5
    i32 1, label %6
    i32 2, label %7
    i32 3, label %8
    i32 7, label %9
    i32 10, label %10
    i32 13, label %11
    i32 14, label %12
    i32 15, label %13
    i32 16, label %14
    i32 17, label %15
    i32 18, label %16
    i32 19, label %17
    i32 20, label %18
    i32 8, label %19
    i32 22, label %20
    i32 9, label %21
    i32 23, label %21
  ]

5:                                                ; preds = %1
  store i32 0, ptr %2, align 4
  br label %23

6:                                                ; preds = %1
  store i32 1, ptr %2, align 4
  br label %23

7:                                                ; preds = %1
  store i32 2, ptr %2, align 4
  br label %23

8:                                                ; preds = %1
  store i32 3, ptr %2, align 4
  br label %23

9:                                                ; preds = %1
  store i32 4, ptr %2, align 4
  br label %23

10:                                               ; preds = %1
  store i32 5, ptr %2, align 4
  br label %23

11:                                               ; preds = %1
  store i32 6, ptr %2, align 4
  br label %23

12:                                               ; preds = %1
  store i32 7, ptr %2, align 4
  br label %23

13:                                               ; preds = %1
  store i32 8, ptr %2, align 4
  br label %23

14:                                               ; preds = %1
  store i32 9, ptr %2, align 4
  br label %23

15:                                               ; preds = %1
  store i32 10, ptr %2, align 4
  br label %23

16:                                               ; preds = %1
  store i32 11, ptr %2, align 4
  br label %23

17:                                               ; preds = %1
  store i32 12, ptr %2, align 4
  br label %23

18:                                               ; preds = %1
  store i32 13, ptr %2, align 4
  br label %23

19:                                               ; preds = %1
  store i32 15, ptr %2, align 4
  br label %23

20:                                               ; preds = %1
  store i32 14, ptr %2, align 4
  br label %23

21:                                               ; preds = %1, %1
  unreachable

22:                                               ; preds = %1
  unreachable

23:                                               ; preds = %20, %19, %18, %17, %16, %15, %14, %13, %12, %11, %10, %9, %8, %7, %6, %5
  %24 = load i32, ptr %2, align 4
  ret i32 %24
}

; Function Attrs: mustprogress nounwind uwtable
define linkonce_odr hidden noundef i32 @_ZNK4llvm6object6Binary7getTypeEv(ptr noundef nonnull align 8 dereferenceable(48) %0) #0 comdat align 2 {
  %2 = alloca ptr, align 8
  store ptr %0, ptr %2, align 8
  %3 = load ptr, ptr %2, align 8
  %4 = getelementptr inbounds nuw %"class.llvm::object::Binary", ptr %3, i32 0, i32 1
  %5 = load i32, ptr %4, align 8
  ret i32 %5
}

; Function Attrs: mustprogress nounwind uwtable
define linkonce_odr hidden noundef ptr @_ZN4llvm6object6unwrapEP16LLVMOpaqueBinary(ptr noundef %0) #0 comdat {
  %2 = alloca ptr, align 8
  store ptr %0, ptr %2, align 8
  %3 = load ptr, ptr %2, align 8
  ret ptr %3
}

; Function Attrs: mustprogress nounwind uwtable
define dso_local i32 @LLVMBinaryGetType(ptr noundef %0) #0 {
  %2 = alloca ptr, align 8
  store ptr %0, ptr %2, align 8
  %3 = load ptr, ptr %2, align 8
  %4 = call noundef ptr @_ZN4llvm6object6unwrapEP16LLVMOpaqueBinary(ptr noundef %3)
  %5 = call noundef i32 @_ZNK4llvm6object6Binary7getTypeEv(ptr noundef nonnull align 8 dereferenceable(48) %4)
  %6 = call noundef i32 @_ZZ17LLVMBinaryGetTypeEN16BinaryTypeMapper29mapBinaryTypeToLLVMBinaryTypeEj(i32 noundef %5)
  ret i32 %6
}